target datalayout = "e-m:e-p270:32:32-p271:32:32-p272:64:64-i64:64-i128:128-f80:128-n8:16:32:64-S128"
target triple = "x86_64-pc-linux-gnu"

%struct._frame_data = type <{ i32, i32, i32, i32, i32, [4 x i8], i64, ptr, ptr, ptr, i8, i16, [5 x i8], %struct.nstime_t, %struct.nstime_t, i32, i32 }>
%struct.nstime_t = type { i64, i32 }

; Function Attrs: null_pointer_is_valid sspstrong uwtable
define hidden void @frame_delta_abs_time(ptr noundef %0, ptr noundef %1, i32 noundef %2, ptr noundef %3) #0 {
  %5 = alloca ptr, align 8
  %6 = alloca ptr, align 8
  %7 = alloca i32, align 4
  %8 = alloca ptr, align 8
  %9 = alloca ptr, align 8
  store ptr %0, ptr %5, align 8
  store ptr %1, ptr %6, align 8
  store i32 %2, ptr %7, align 4
  store ptr %3, ptr %8, align 8
  call void @llvm.lifetime.start.p0(i64 8, ptr %9) #5
  %10 = load i32, ptr %7, align 4
  %11 = icmp ne i32 %10, 0
  br i1 %11, label %12, label %16

12:                                               ; preds = %4
  %13 = load ptr, ptr %5, align 8
  %14 = load i32, ptr %7, align 4
  %15 = call ptr @epan_get_frame_ts(ptr noundef %13, i32 noundef %14)
  br label %17

16:                                               ; preds = %4
  br label %17

17:                                               ; preds = %16, %12
  %18 = phi ptr [ %15, %12 ], [ null, %16 ]
  store ptr %18, ptr %9, align 8
  %19 = load ptr, ptr %9, align 8
  %20 = icmp ne ptr %19, null
  br i1 %20, label %21, label %26

21:                                               ; preds = %17
  %22 = load ptr, ptr %8, align 8
  %23 = load ptr, ptr %6, align 8
  %24 = getelementptr inbounds nuw %struct._frame_data, ptr %23, i32 0, i32 13
  %25 = load ptr, ptr %9, align 8
  call void @nstime_delta(ptr noundef %22, ptr noundef %24, ptr noundef %25)
  br label %28

26:                                               ; preds = %17
  %27 = load ptr, ptr %8, align 8
  call void @nstime_set_zero(ptr noundef %27)
  br label %28

28:                                               ; preds = %26, %21
  call void @llvm.lifetime.end.p0(i64 8, ptr %9) #5
  ret void
}

; Function Attrs: null_pointer_is_valid sspstrong uwtable
define internal i32 @frame_data_time_delta_dis_compare(ptr noundef %0, ptr noundef %1, ptr noundef %2) #0 {
  %4 = alloca ptr, align 8
  %5 = alloca ptr, align 8
  %6 = alloca ptr, align 8
  %7 = alloca %struct.nstime_t, align 8
  %8 = alloca %struct.nstime_t, align 8
  store ptr %0, ptr %4, align 8
  store ptr %1, ptr %5, align 8
  store ptr %2, ptr %6, align 8
  call void @llvm.lifetime.start.p0(i64 16, ptr %7) #5
  call void @llvm.lifetime.start.p0(i64 16, ptr %8) #5
  %9 = load ptr, ptr %4, align 8
  %10 = load ptr, ptr %5, align 8
  %11 = load ptr, ptr %5, align 8
  %12 = getelementptr inbounds nuw %struct._frame_data, ptr %11, i32 0, i32 16
  %13 = load i32, ptr %12, align 4
  call void @frame_delta_abs_time(ptr noundef %9, ptr noundef %10, i32 noundef %13, ptr noundef %7)
  %14 = load ptr, ptr %4, align 8
  %15 = load ptr, ptr %6, align 8
  %16 = load ptr, ptr %6, align 8
  %17 = getelementptr inbounds nuw %struct._frame_data, ptr %16, i32 0, i32 16
  %18 = load i32, ptr %17, align 4
  call void @frame_delta_abs_time(ptr noundef %14, ptr noundef %15, i32 noundef %18, ptr noundef %8)
  %19 = load ptr, ptr %5, align 8
  %20 = getelementptr inbounds nuw %struct._frame_data, ptr %19, i32 0, i32 11
  %21 = load i16, ptr %20, align 1
  %22 = lshr i16 %21, 5
  %23 = and i16 %22, 1
  %24 = zext i16 %23 to i32
  %25 = icmp ne i32 %24, 0
  br i1 %25, label %26, label %35

26:                                               ; preds = %3
  %27 = load ptr, ptr %6, align 8
  %28 = getelementptr inbounds nuw %struct._frame_data, ptr %27, i32 0, i32 11
  %29 = load i16, ptr %28, align 1
  %30 = lshr i16 %29, 5
  %31 = and i16 %30, 1
  %32 = zext i16 %31 to i32
  %33 = icmp ne i32 %32, 0
  br i1 %33, label %35, label %34

34:                                               ; preds = %26
  br label %110

35:                                               ; preds = %26, %3
  %36 = load ptr, ptr %5, align 8
  %37 = getelementptr inbounds nuw %struct._frame_data, ptr %36, i32 0, i32 11
  %38 = load i16, ptr %37, align 1
  %39 = lshr i16 %38, 5
  %40 = and i16 %39, 1
  %41 = zext i16 %40 to i32
  %42 = icmp ne i32 %41, 0
  br i1 %42, label %52, label %43

43:                                               ; preds = %35
  %44 = load ptr, ptr %6, align 8
  %45 = getelementptr inbounds nuw %struct._frame_data, ptr %44, i32 0, i32 11
  %46 = load i16, ptr %45, align 1
  %47 = lshr i16 %46, 5
  %48 = and i16 %47, 1
  %49 = zext i16 %48 to i32
  %50 = icmp ne i32 %49, 0
  br i1 %50, label %51, label %52

51:                                               ; preds = %43
  br label %108

52:                                               ; preds = %43, %35
  %53 = getelementptr inbounds nuw %struct.nstime_t, ptr %7, i32 0, i32 0
  %54 = load i64, ptr %53, align 8
  %55 = getelementptr inbounds nuw %struct.nstime_t, ptr %8, i32 0, i32 0
  %56 = load i64, ptr %55, align 8
  %57 = icmp slt i64 %54, %56
  br i1 %57, label %58, label %59

58:                                               ; preds = %52
  br label %106

59:                                               ; preds = %52
  %60 = getelementptr inbounds nuw %struct.nstime_t, ptr %7, i32 0, i32 0
  %61 = load i64, ptr %60, align 8
  %62 = getelementptr inbounds nuw %struct.nstime_t, ptr %8, i32 0, i32 0
  %63 = load i64, ptr %62, align 8
  %64 = icmp sgt i64 %61, %63
  br i1 %64, label %65, label %66

65:                                               ; preds = %59
  br label %104

66:                                               ; preds = %59
  %67 = getelementptr inbounds nuw %struct.nstime_t, ptr %7, i32 0, i32 1
  %68 = load i32, ptr %67, align 8
  %69 = getelementptr inbounds nuw %struct.nstime_t, ptr %8, i32 0, i32 1
  %70 = load i32, ptr %69, align 8
  %71 = icmp slt i32 %68, %70
  br i1 %71, label %72, label %73

72:                                               ; preds = %66
  br label %102

73:                                               ; preds = %66
  %74 = getelementptr inbounds nuw %struct.nstime_t, ptr %7, i32 0, i32 1
  %75 = load i32, ptr %74, align 8
  %76 = getelementptr inbounds nuw %struct.nstime_t, ptr %8, i32 0, i32 1
  %77 = load i32, ptr %76, align 8
  %78 = icmp sgt i32 %75, %77
  br i1 %78, label %79, label %80

79:                                               ; preds = %73
  br label %100

80:                                               ; preds = %73
  %81 = load ptr, ptr %5, align 8
  %82 = getelementptr inbounds nuw %struct._frame_data, ptr %81, i32 0, i32 0
  %83 = load i32, ptr %82, align 8
  %84 = load ptr, ptr %6, align 8
  %85 = getelementptr inbounds nuw %struct._frame_data, ptr %84, i32 0, i32 0
  %86 = load i32, ptr %85, align 8
  %87 = icmp ult i32 %83, %86
  br i1 %87, label %88, label %89

88:                                               ; preds = %80
  br label %98

89:                                               ; preds = %80
  %90 = load ptr, ptr %5, align 8
  %91 = getelementptr inbounds nuw %struct._frame_data, ptr %90, i32 0, i32 0
  %92 = load i32, ptr %91, align 8
  %93 = load ptr, ptr %6, align 8
  %94 = getelementptr inbounds nuw %struct._frame_data, ptr %93, i32 0, i32 0
  %95 = load i32, ptr %94, align 8
  %96 = icmp ugt i32 %92, %95
  %97 = select i1 %96, i32 1, i32 0
  br label %98

98:                                               ; preds = %89, %88
  %99 = phi i32 [ -1, %88 ], [ %97, %89 ]
  br label %100

100:                                              ; preds = %98, %79
  %101 = phi i32 [ 1, %79 ], [ %99, %98 ]
  br label %102

102:                                              ; preds = %100, %72
  %103 = phi i32 [ -1, %72 ], [ %101, %100 ]
  br label %104

104:                                              ; preds = %102, %65
  %105 = phi i32 [ 1, %65 ], [ %103, %102 ]
  br label %106

106:                                              ; preds = %104, %58
  %107 = phi i32 [ -1, %58 ], [ %105, %104 ]
  br label %108

108:                                              ; preds = %106, %51
  %109 = phi i32 [ 1, %51 ], [ %107, %106 ]
  br label %110

110:                                              ; preds = %108, %34
  %111 = phi i32 [ -1, %34 ], [ %109, %108 ]
  call void @llvm.lifetime.end.p0(i64 16, ptr %8) #5
  call void @llvm.lifetime.end.p0(i64 16, ptr %7) #5
  ret i32 %111
}