; Function Attrs: null_pointer_is_valid sspstrong uwtable
define internal fastcc range(i32 -1, 2) i32 @frame_data_time_delta_dis_compare(ptr noundef %0, ptr noundef %1, ptr noundef %2) unnamed_addr #0 {
  %4 = alloca %struct.nstime_t, align 8
  %5 = alloca %struct.nstime_t, align 8
  call void @llvm.lifetime.start.p0(i64 16, ptr nonnull %4) #6
  call void @llvm.lifetime.start.p0(i64 16, ptr nonnull %5) #6
  %6 = getelementptr inbounds nuw i8, ptr %1, i64 100
  %7 = load i32, ptr %6, align 4
  %.not.i = icmp eq i32 %7, 0
  br i1 %.not.i, label %.thread.i, label %8

8:                                                ; preds = %3
  %9 = tail call ptr @epan_get_frame_ts(ptr noundef %0, i32 noundef %7)
  %.not8.i = icmp eq ptr %9, null
  br i1 %.not8.i, label %.thread.i, label %10

10:                                               ; preds = %8
  %11 = getelementptr inbounds nuw i8, ptr %1, i64 64
  call void @nstime_delta(ptr noundef nonnull %4, ptr noundef nonnull %11, ptr noundef nonnull %9)
  br label %frame_delta_abs_time.exit

.thread.i:                                        ; preds = %8, %3
  call void @nstime_set_zero(ptr noundef nonnull %4)
  br label %frame_delta_abs_time.exit

frame_delta_abs_time.exit:                        ; preds = %10, %.thread.i
  %12 = getelementptr inbounds nuw i8, ptr %2, i64 100
  %13 = load i32, ptr %12, align 4
  %.not.i22 = icmp eq i32 %13, 0
  br i1 %.not.i22, label %.thread.i24, label %14

14:                                               ; preds = %frame_delta_abs_time.exit
  %15 = call ptr @epan_get_frame_ts(ptr noundef %0, i32 noundef %13)
  %.not8.i23 = icmp eq ptr %15, null
  br i1 %.not8.i23, label %.thread.i24, label %16

16:                                               ; preds = %14
  %17 = getelementptr inbounds nuw i8, ptr %2, i64 64
  call void @nstime_delta(ptr noundef nonnull %5, ptr noundef nonnull %17, ptr noundef nonnull %15)
  br label %frame_delta_abs_time.exit25

.thread.i24:                                      ; preds = %14, %frame_delta_abs_time.exit
  call void @nstime_set_zero(ptr noundef nonnull %5)
  br label %frame_delta_abs_time.exit25

frame_delta_abs_time.exit25:                      ; preds = %16, %.thread.i24
  %18 = getelementptr inbounds nuw i8, ptr %1, i64 57
  %19 = load i16, ptr %18, align 1
  %20 = and i16 %19, 32
  %.not = icmp eq i16 %20, 0
  %21 = getelementptr inbounds nuw i8, ptr %2, i64 57
  %22 = load i16, ptr %21, align 1
  %23 = and i16 %22, 32
  %.not21 = icmp eq i16 %23, 0
  br i1 %.not, label %25, label %24

24:                                               ; preds = %frame_delta_abs_time.exit25
  br i1 %.not21, label %47, label %26

25:                                               ; preds = %frame_delta_abs_time.exit25
  br i1 %.not21, label %26, label %47

26:                                               ; preds = %24, %25
  %27 = load i64, ptr %4, align 8
  %28 = load i64, ptr %5, align 8
  %29 = icmp slt i64 %27, %28
  br i1 %29, label %47, label %30

30:                                               ; preds = %26
  %31 = icmp sgt i64 %27, %28
  br i1 %31, label %47, label %32

32:                                               ; preds = %30
  %33 = getelementptr inbounds nuw i8, ptr %4, i64 8
  %34 = load i32, ptr %33, align 8
  %35 = getelementptr inbounds nuw i8, ptr %5, i64 8
  %36 = load i32, ptr %35, align 8
  %37 = icmp slt i32 %34, %36
  br i1 %37, label %47, label %38

38:                                               ; preds = %32
  %39 = icmp sgt i32 %34, %36
  br i1 %39, label %47, label %40

40:                                               ; preds = %38
  %41 = load i32, ptr %1, align 8
  %42 = load i32, ptr %2, align 8
  %43 = icmp ult i32 %41, %42
  br i1 %43, label %47, label %44

44:                                               ; preds = %40
  %45 = icmp ugt i32 %41, %42
  %46 = zext i1 %45 to i32
  br label %47

47:                                               ; preds = %25, %30, %38, %40, %44, %32, %26, %24
  %48 = phi i32 [ -1, %24 ], [ 1, %25 ], [ -1, %26 ], [ 1, %30 ], [ -1, %32 ], [ 1, %38 ], [ %46, %44 ], [ -1, %40 ]
  call void @llvm.lifetime.end.p0(i64 16, ptr nonnull %5) #6
  call void @llvm.lifetime.end.p0(i64 16, ptr nonnull %4) #6
  ret i32 %48
}